; Function Attrs: mustprogress nounwind uwtable
define internal void @_ZN12_GLOBAL__N_115ReadModuleNamesD0Ev(ptr noundef nonnull align 8 dereferenceable(288) initializes((0, 8)) %0) unnamed_addr #0 align 2 {
  store ptr getelementptr inbounds nuw inrange(-16, 160) (i8, ptr @_ZTVN12_GLOBAL__N_115ReadModuleNamesE, i64 16), ptr %0, align 8
  %2 = getelementptr inbounds nuw i8, ptr %0, i64 16
  %3 = load ptr, ptr %2, align 8
  %4 = tail call noundef i64 @_ZNK4llvm15SmallVectorBaseIjE4sizeEv(ptr noundef nonnull align 8 dereferenceable(272) %2) #24
  %.not4.i.i.i = icmp eq i64 %4, 0
  br i1 %.not4.i.i.i, label %_ZN4llvm23SmallVectorTemplateBaseINSt7__cxx1112basic_stringIcSt11char_traitsIcESaIcEEELb0EE13destroy_rangeEPS6_S8_.exit.i.i, label %.lr.ph.i.preheader.i.i

.lr.ph.i.preheader.i.i:                           ; preds = %1
  %5 = getelementptr inbounds %"class.std::__cxx11::basic_string", ptr %3, i64 %4
  br label %.lr.ph.i.i.i

.lr.ph.i.i.i:                                     ; preds = %.lr.ph.i.i.i, %.lr.ph.i.preheader.i.i
  %.05.i.i.i = phi ptr [ %6, %.lr.ph.i.i.i ], [ %5, %.lr.ph.i.preheader.i.i ]
  %6 = getelementptr inbounds i8, ptr %.05.i.i.i, i64 -32
  tail call void @_ZNSt7__cxx1112basic_stringIcSt11char_traitsIcESaIcEED1Ev(ptr noundef nonnull align 8 dereferenceable(32) %6) #24
  %.not.i.i.i = icmp eq ptr %3, %6
  br i1 %.not.i.i.i, label %_ZN4llvm23SmallVectorTemplateBaseINSt7__cxx1112basic_stringIcSt11char_traitsIcESaIcEEELb0EE13destroy_rangeEPS6_S8_.exit.i.i, label %.lr.ph.i.i.i, !llvm.loop !98

_ZN4llvm23SmallVectorTemplateBaseINSt7__cxx1112basic_stringIcSt11char_traitsIcESaIcEEELb0EE13destroy_rangeEPS6_S8_.exit.i.i: ; preds = %.lr.ph.i.i.i, %1
  %7 = load ptr, ptr %2, align 8
  %8 = getelementptr inbounds nuw i8, ptr %0, i64 32
  %9 = icmp eq ptr %7, %8
  br i1 %9, label %_ZN12_GLOBAL__N_115ReadModuleNamesD2Ev.exit, label %10

10:                                               ; preds = %_ZN4llvm23SmallVectorTemplateBaseINSt7__cxx1112basic_stringIcSt11char_traitsIcESaIcEEELb0EE13destroy_rangeEPS6_S8_.exit.i.i
  tail call void @free(ptr noundef %7) #24
  br label %_ZN12_GLOBAL__N_115ReadModuleNamesD2Ev.exit

_ZN12_GLOBAL__N_115ReadModuleNamesD2Ev.exit:      ; preds = %_ZN4llvm23SmallVectorTemplateBaseINSt7__cxx1112basic_stringIcSt11char_traitsIcESaIcEEELb0EE13destroy_rangeEPS6_S8_.exit.i.i, %10
  tail call void @_ZN5clang17ASTReaderListenerD2Ev(ptr noundef nonnull align 8 dereferenceable(288) %0) #24
  tail call void @_ZdlPvm(ptr noundef nonnull %0, i64 noundef 288) #25
  ret void
}